target datalayout = "e-m:e-p270:32:32-p271:32:32-p272:64:64-i64:64-i128:128-f80:128-n8:16:32:64-S128"
target triple = "x86_64-pc-linux-gnu"

%struct.archive_write = type { %struct.archive, i32, i64, i64, ptr, i64, ptr, ptr, ptr, ptr, ptr, i32, i32, ptr, ptr, ptr, ptr, ptr, ptr, ptr, ptr, ptr, ptr, ptr, ptr, ptr, ptr }
%struct.archive = type { i32, i32, ptr, i32, ptr, i32, i32, ptr, %struct.archive_string, ptr, i32, i32, ptr, ptr, i64, i64, i64, i8, i64 }
%struct.archive_string = type { ptr, i64, i64 }
%struct.archive_write_filter = type { i64, ptr, ptr, ptr, ptr, ptr, ptr, ptr, ptr, ptr, ptr, i32, i32, i32, i32 }
%struct.archive_none = type { i64, i64, ptr, ptr }

@.str.14 = private unnamed_addr constant [14 x i8] c"write overrun\00", align 1

; Function Attrs: nounwind uwtable
define internal i32 @archive_write_client_close(ptr noundef %0) #0 {
  %2 = alloca ptr, align 8
  %3 = alloca ptr, align 8
  %4 = alloca ptr, align 8
  %5 = alloca i64, align 8
  %6 = alloca i64, align 8
  %7 = alloca i64, align 8
  %8 = alloca i64, align 8
  %9 = alloca ptr, align 8
  %10 = alloca i32, align 4
  store ptr %0, ptr %2, align 8, !tbaa !33
  call void @llvm.lifetime.start.p0(i64 8, ptr %3) #9
  %11 = load ptr, ptr %2, align 8, !tbaa !33
  %12 = getelementptr inbounds nuw %struct.archive_write_filter, ptr %11, i32 0, i32 1
  %13 = load ptr, ptr %12, align 8, !tbaa !34
  store ptr %13, ptr %3, align 8, !tbaa !4
  call void @llvm.lifetime.start.p0(i64 8, ptr %4) #9
  %14 = load ptr, ptr %2, align 8, !tbaa !33
  %15 = getelementptr inbounds nuw %struct.archive_write_filter, ptr %14, i32 0, i32 9
  %16 = load ptr, ptr %15, align 8, !tbaa !63
  store ptr %16, ptr %4, align 8, !tbaa !56
  call void @llvm.lifetime.start.p0(i64 8, ptr %5) #9
  call void @llvm.lifetime.start.p0(i64 8, ptr %6) #9
  call void @llvm.lifetime.start.p0(i64 8, ptr %7) #9
  call void @llvm.lifetime.start.p0(i64 8, ptr %8) #9
  call void @llvm.lifetime.start.p0(i64 8, ptr %9) #9
  call void @llvm.lifetime.start.p0(i64 4, ptr %10) #9
  store i32 0, ptr %10, align 4, !tbaa !28
  %17 = load ptr, ptr %4, align 8, !tbaa !56
  %18 = getelementptr inbounds nuw %struct.archive_none, ptr %17, i32 0, i32 3
  %19 = load ptr, ptr %18, align 8, !tbaa !61
  %20 = load ptr, ptr %4, align 8, !tbaa !56
  %21 = getelementptr inbounds nuw %struct.archive_none, ptr %20, i32 0, i32 2
  %22 = load ptr, ptr %21, align 8, !tbaa !60
  %23 = icmp ne ptr %19, %22
  br i1 %23, label %24, label %121

24:                                               ; preds = %1
  %25 = load ptr, ptr %4, align 8, !tbaa !56
  %26 = getelementptr inbounds nuw %struct.archive_none, ptr %25, i32 0, i32 0
  %27 = load i64, ptr %26, align 8, !tbaa !58
  %28 = load ptr, ptr %4, align 8, !tbaa !56
  %29 = getelementptr inbounds nuw %struct.archive_none, ptr %28, i32 0, i32 1
  %30 = load i64, ptr %29, align 8, !tbaa !62
  %31 = sub i64 %27, %30
  store i64 %31, ptr %5, align 8, !tbaa !29
  %32 = load ptr, ptr %3, align 8, !tbaa !4
  %33 = getelementptr inbounds nuw %struct.archive_write, ptr %32, i32 0, i32 12
  %34 = load i32, ptr %33, align 4, !tbaa !22
  %35 = icmp sle i32 %34, 0
  br i1 %35, label %36, label %41

36:                                               ; preds = %24
  %37 = load ptr, ptr %3, align 8, !tbaa !4
  %38 = getelementptr inbounds nuw %struct.archive_write, ptr %37, i32 0, i32 11
  %39 = load i32, ptr %38, align 8, !tbaa !21
  %40 = sext i32 %39 to i64
  store i64 %40, ptr %6, align 8, !tbaa !29
  br label %59

41:                                               ; preds = %24
  %42 = load ptr, ptr %3, align 8, !tbaa !4
  %43 = getelementptr inbounds nuw %struct.archive_write, ptr %42, i32 0, i32 12
  %44 = load i32, ptr %43, align 4, !tbaa !22
  %45 = sext i32 %44 to i64
  %46 = load i64, ptr %5, align 8, !tbaa !29
  %47 = load ptr, ptr %3, align 8, !tbaa !4
  %48 = getelementptr inbounds nuw %struct.archive_write, ptr %47, i32 0, i32 12
  %49 = load i32, ptr %48, align 4, !tbaa !22
  %50 = sext i32 %49 to i64
  %51 = add nsw i64 %46, %50
  %52 = sub nsw i64 %51, 1
  %53 = load ptr, ptr %3, align 8, !tbaa !4
  %54 = getelementptr inbounds nuw %struct.archive_write, ptr %53, i32 0, i32 12
  %55 = load i32, ptr %54, align 4, !tbaa !22
  %56 = sext i32 %55 to i64
  %57 = sdiv i64 %52, %56
  %58 = mul nsw i64 %45, %57
  store i64 %58, ptr %6, align 8, !tbaa !29
  br label %59

59:                                               ; preds = %41, %36
  %60 = load i64, ptr %6, align 8, !tbaa !29
  %61 = load ptr, ptr %3, align 8, !tbaa !4
  %62 = getelementptr inbounds nuw %struct.archive_write, ptr %61, i32 0, i32 11
  %63 = load i32, ptr %62, align 8, !tbaa !21
  %64 = sext i32 %63 to i64
  %65 = icmp sgt i64 %60, %64
  br i1 %65, label %66, label %71

66:                                               ; preds = %59
  %67 = load ptr, ptr %3, align 8, !tbaa !4
  %68 = getelementptr inbounds nuw %struct.archive_write, ptr %67, i32 0, i32 11
  %69 = load i32, ptr %68, align 8, !tbaa !21
  %70 = sext i32 %69 to i64
  store i64 %70, ptr %6, align 8, !tbaa !29
  br label %71

71:                                               ; preds = %66, %59
  %72 = load i64, ptr %5, align 8, !tbaa !29
  %73 = load i64, ptr %6, align 8, !tbaa !29
  %74 = icmp slt i64 %72, %73
  br i1 %74, label %75, label %83

75:                                               ; preds = %71
  %76 = load ptr, ptr %4, align 8, !tbaa !56
  %77 = getelementptr inbounds nuw %struct.archive_none, ptr %76, i32 0, i32 3
  %78 = load ptr, ptr %77, align 8, !tbaa !61
  %79 = load i64, ptr %6, align 8, !tbaa !29
  %80 = load i64, ptr %5, align 8, !tbaa !29
  %81 = sub nsw i64 %79, %80
  call void @llvm.memset.p0.i64(ptr align 1 %78, i8 0, i64 %81, i1 false)
  %82 = load i64, ptr %6, align 8, !tbaa !29
  store i64 %82, ptr %5, align 8, !tbaa !29
  br label %83

83:                                               ; preds = %75, %71
  %84 = load ptr, ptr %4, align 8, !tbaa !56
  %85 = getelementptr inbounds nuw %struct.archive_none, ptr %84, i32 0, i32 2
  %86 = load ptr, ptr %85, align 8, !tbaa !60
  store ptr %86, ptr %9, align 8, !tbaa !24
  %87 = load i64, ptr %5, align 8, !tbaa !29
  store i64 %87, ptr %8, align 8, !tbaa !29
  br label %88

88:                                               ; preds = %113, %83
  %89 = load i64, ptr %8, align 8, !tbaa !29
  %90 = icmp ugt i64 %89, 0
  br i1 %90, label %91, label %120

91:                                               ; preds = %88
  %92 = load ptr, ptr %3, align 8, !tbaa !4
  %93 = getelementptr inbounds nuw %struct.archive_write, ptr %92, i32 0, i32 7
  %94 = load ptr, ptr %93, align 8, !tbaa !45
  %95 = load ptr, ptr %3, align 8, !tbaa !4
  %96 = getelementptr inbounds nuw %struct.archive_write, ptr %95, i32 0, i32 0
  %97 = load ptr, ptr %3, align 8, !tbaa !4
  %98 = getelementptr inbounds nuw %struct.archive_write, ptr %97, i32 0, i32 10
  %99 = load ptr, ptr %98, align 8, !tbaa !49
  %100 = load ptr, ptr %9, align 8, !tbaa !24
  %101 = load i64, ptr %8, align 8, !tbaa !29
  %102 = call i64 %94(ptr noundef %96, ptr noundef %99, ptr noundef %100, i64 noundef %101)
  store i64 %102, ptr %7, align 8, !tbaa !29
  %103 = load i64, ptr %7, align 8, !tbaa !29
  %104 = icmp sle i64 %103, 0
  br i1 %104, label %105, label %106

105:                                              ; preds = %91
  store i32 -30, ptr %10, align 4, !tbaa !28
  br label %120

106:                                              ; preds = %91
  %107 = load i64, ptr %7, align 8, !tbaa !29
  %108 = load i64, ptr %8, align 8, !tbaa !29
  %109 = icmp ugt i64 %107, %108
  br i1 %109, label %110, label %113

110:                                              ; preds = %106
  %111 = load ptr, ptr %3, align 8, !tbaa !4
  %112 = getelementptr inbounds nuw %struct.archive_write, ptr %111, i32 0, i32 0
  call void (ptr, i32, ptr, ...) @archive_set_error(ptr noundef %112, i32 noundef -1, ptr noundef @.str.14)
  store i32 -30, ptr %10, align 4, !tbaa !28
  br label %120

113:                                              ; preds = %106
  %114 = load i64, ptr %7, align 8, !tbaa !29
  %115 = load ptr, ptr %9, align 8, !tbaa !24
  %116 = getelementptr inbounds i8, ptr %115, i64 %114
  store ptr %116, ptr %9, align 8, !tbaa !24
  %117 = load i64, ptr %7, align 8, !tbaa !29
  %118 = load i64, ptr %8, align 8, !tbaa !29
  %119 = sub i64 %118, %117
  store i64 %119, ptr %8, align 8, !tbaa !29
  br label %88, !llvm.loop !67

120:                                              ; preds = %110, %105, %88
  br label %121

121:                                              ; preds = %120, %1
  %122 = load ptr, ptr %3, align 8, !tbaa !4
  %123 = getelementptr inbounds nuw %struct.archive_write, ptr %122, i32 0, i32 8
  %124 = load ptr, ptr %123, align 8, !tbaa !47
  %125 = icmp ne ptr %124, null
  br i1 %125, label %126, label %136

126:                                              ; preds = %121
  %127 = load ptr, ptr %3, align 8, !tbaa !4
  %128 = getelementptr inbounds nuw %struct.archive_write, ptr %127, i32 0, i32 8
  %129 = load ptr, ptr %128, align 8, !tbaa !47
  %130 = load ptr, ptr %3, align 8, !tbaa !4
  %131 = getelementptr inbounds nuw %struct.archive_write, ptr %130, i32 0, i32 0
  %132 = load ptr, ptr %3, align 8, !tbaa !4
  %133 = getelementptr inbounds nuw %struct.archive_write, ptr %132, i32 0, i32 10
  %134 = load ptr, ptr %133, align 8, !tbaa !49
  %135 = call i32 %129(ptr noundef %131, ptr noundef %134)
  br label %136

136:                                              ; preds = %126, %121
  %137 = load ptr, ptr %4, align 8, !tbaa !56
  %138 = getelementptr inbounds nuw %struct.archive_none, ptr %137, i32 0, i32 2
  %139 = load ptr, ptr %138, align 8, !tbaa !60
  call void @free(ptr noundef %139) #9
  %140 = load ptr, ptr %4, align 8, !tbaa !56
  call void @free(ptr noundef %140) #9
  %141 = load ptr, ptr %2, align 8, !tbaa !33
  %142 = getelementptr inbounds nuw %struct.archive_write_filter, ptr %141, i32 0, i32 14
  store i32 4, ptr %142, align 4, !tbaa !36
  %143 = load i32, ptr %10, align 4, !tbaa !28
  call void @llvm.lifetime.end.p0(i64 4, ptr %10) #9
  call void @llvm.lifetime.end.p0(i64 8, ptr %9) #9
  call void @llvm.lifetime.end.p0(i64 8, ptr %8) #9
  call void @llvm.lifetime.end.p0(i64 8, ptr %7) #9
  call void @llvm.lifetime.end.p0(i64 8, ptr %6) #9
  call void @llvm.lifetime.end.p0(i64 8, ptr %5) #9
  call void @llvm.lifetime.end.p0(i64 8, ptr %4) #9
  call void @llvm.lifetime.end.p0(i64 8, ptr %3) #9
  ret i32 %143
}